; ModuleID = 'source-C-CXX/14/1949.c'
source_filename = "source-C-CXX/14/1949.c"
target datalayout = "e-m:e-p270:32:32-p271:32:32-p272:64:64-i64:64-f80:128-n8:16:32:64-S128"
target triple = "x86_64-pc-linux-gnu"

@.str = private unnamed_addr constant [3 x i8] c"%d\00", align 1

; Function Attrs: nofree nounwind sspstrong uwtable
define dso_local i32 @main() local_unnamed_addr #0 {
  %1 = alloca [1001 x i32], align 16
  %2 = alloca [1001 x i32], align 16
  %3 = alloca i32, align 4
  %4 = bitcast [1001 x i32]* %1 to i8*
  call void @llvm.lifetime.start.p0i8(i64 4004, i8* nonnull %4) #3
  %5 = bitcast [1001 x i32]* %2 to i8*
  call void @llvm.lifetime.start.p0i8(i64 4004, i8* nonnull %5) #3
  %6 = bitcast i32* %3 to i8*
  call void @llvm.lifetime.start.p0i8(i64 4, i8* nonnull %6) #3
  %7 = call i32 (i8*, ...) @__isoc99_scanf(i8* getelementptr inbounds ([3 x i8], [3 x i8]* @.str, i64 0, i64 0), i32* nonnull %3)
  %8 = getelementptr inbounds [1001 x i32], [1001 x i32]* %2, i64 0, i64 1
  %9 = getelementptr inbounds [1001 x i32], [1001 x i32]* %2, i64 0, i64 0
  %10 = load i32, i32* %3, align 4, !tbaa !5
  %11 = icmp sgt i32 %10, 0
  br i1 %11, label %12, label %48

12:                                               ; preds = %0, %43
  %13 = phi i32 [ %44, %43 ], [ %10, %0 ]
  %14 = phi i32 [ %46, %43 ], [ 0, %0 ]
  %15 = phi i32 [ %45, %43 ], [ 0, %0 ]
  %16 = icmp sgt i32 %13, 0
  br i1 %16, label %17, label %43

17:                                               ; preds = %12, %29
  %18 = phi i64 [ %31, %29 ], [ 0, %12 ]
  %19 = phi i32 [ %30, %29 ], [ 0, %12 ]
  %20 = getelementptr inbounds [1001 x i32], [1001 x i32]* %1, i64 0, i64 %18
  %21 = call i32 (i8*, ...) @__isoc99_scanf(i8* getelementptr inbounds ([3 x i8], [3 x i8]* @.str, i64 0, i64 0), i32* nonnull %20)
  %22 = load i32, i32* %20, align 4, !tbaa !5
  %23 = icmp eq i32 %22, 0
  br i1 %23, label %24, label %29

24:                                               ; preds = %17
  %25 = sext i32 %19 to i64
  %26 = getelementptr inbounds [1001 x i32], [1001 x i32]* %2, i64 0, i64 %25
  %27 = trunc i64 %18 to i32
  store i32 %27, i32* %26, align 4, !tbaa !5
  %28 = add nsw i32 %19, 1
  br label %29

29:                                               ; preds = %17, %24
  %30 = phi i32 [ %28, %24 ], [ %19, %17 ]
  %31 = add nuw nsw i64 %18, 1
  %32 = load i32, i32* %3, align 4, !tbaa !5
  %33 = sext i32 %32 to i64
  %34 = icmp slt i64 %31, %33
  br i1 %34, label %17, label %35, !llvm.loop !9

35:                                               ; preds = %29
  %36 = icmp eq i32 %30, 2
  br i1 %36, label %37, label %43

37:                                               ; preds = %35
  %38 = load i32, i32* %8, align 4, !tbaa !5
  %39 = load i32, i32* %9, align 16, !tbaa !5
  %40 = xor i32 %39, -1
  %41 = add i32 %38, %15
  %42 = add i32 %41, %40
  br label %43

43:                                               ; preds = %12, %37, %35
  %44 = phi i32 [ %32, %37 ], [ %32, %35 ], [ %13, %12 ]
  %45 = phi i32 [ %42, %37 ], [ %15, %35 ], [ %15, %12 ]
  %46 = add nuw nsw i32 %14, 1
  %47 = icmp slt i32 %46, %44
  br i1 %47, label %12, label %48, !llvm.loop !11

48:                                               ; preds = %43, %0
  %49 = phi i32 [ 0, %0 ], [ %45, %43 ]
  %50 = call i32 (i8*, ...) @printf(i8* nonnull dereferenceable(1) getelementptr inbounds ([3 x i8], [3 x i8]* @.str, i64 0, i64 0), i32 %49)
  call void @llvm.lifetime.end.p0i8(i64 4, i8* nonnull %6) #3
  call void @llvm.lifetime.end.p0i8(i64 4004, i8* nonnull %5) #3
  call void @llvm.lifetime.end.p0i8(i64 4004, i8* nonnull %4) #3
  ret i32 0
}

; Function Attrs: argmemonly mustprogress nofree nosync nounwind willreturn
declare void @llvm.lifetime.start.p0i8(i64 immarg, i8* nocapture) #1

; Function Attrs: nofree nounwind
declare noundef i32 @__isoc99_scanf(i8* nocapture noundef readonly, ...) local_unnamed_addr #2

; Function Attrs: nofree nounwind
declare noundef i32 @printf(i8* nocapture noundef readonly, ...) local_unnamed_addr #2

; Function Attrs: argmemonly mustprogress nofree nosync nounwind willreturn
declare void @llvm.lifetime.end.p0i8(i64 immarg, i8* nocapture) #1


!llvm.module.flags = !{!0, !1, !2, !3}
!llvm.ident = !{!4}

!0 = !{i32 1, !"wchar_size", i32 4}
!1 = !{i32 7, !"PIC Level", i32 2}
!2 = !{i32 7, !"PIE Level", i32 2}
!3 = !{i32 7, !"uwtable", i32 1}
!4 = !{!"clang version 13.0.0"}
!5 = !{!6, !6, i64 0}
!6 = !{!"int", !7, i64 0}
!7 = !{!"omnipotent char", !8, i64 0}
!8 = !{!"Simple C/C++ TBAA"}
!9 = distinct !{!9, !10}
!10 = !{!"llvm.loop.mustprogress"}
!11 = distinct !{!11, !10, !12}
!12 = !{!"llvm.loop.unswitch.partial.disable"}
